; Function Attrs: nounwind uwtable
define ptr @l_Lean_Linter_MissingDocs_checkClassAbbrev(ptr noundef %0, ptr noundef %1, ptr noundef %2, ptr noundef %3) local_unnamed_addr #0 {
  %5 = tail call ptr @l_Lean_Syntax_getArg(ptr noundef %0, ptr noundef nonnull inttoptr (i64 1 to ptr)) #5
  %6 = tail call zeroext i8 @l_Lean_Linter_MissingDocs_declModifiersPubNoDoc(ptr noundef %5)
  %7 = ptrtoint ptr %5 to i64
  %8 = and i64 %7, 1
  %.not = icmp eq i64 %8, 0
  br i1 %.not, label %9, label %lean_dec.exit21

9:                                                ; preds = %4
  %10 = load i32, ptr %5, align 4, !tbaa !8
  %11 = icmp sgt i32 %10, 1
  br i1 %11, label %12, label %14, !prof !11

12:                                               ; preds = %9
  %13 = add nsw i32 %10, -1
  store i32 %13, ptr %5, align 4, !tbaa !8
  br label %lean_dec.exit21

14:                                               ; preds = %9
  %.not.i = icmp eq i32 %10, 0
  br i1 %.not.i, label %lean_dec.exit21, label %15

15:                                               ; preds = %14
  tail call void @lean_dec_ref_cold(ptr noundef nonnull %5) #5
  br label %lean_dec.exit21

lean_dec.exit21:                                  ; preds = %15, %14, %12, %4
  %16 = icmp eq i8 %6, 0
  br i1 %16, label %17, label %33

17:                                               ; preds = %lean_dec.exit21
  %18 = ptrtoint ptr %1 to i64
  %19 = and i64 %18, 1
  %.not27 = icmp eq i64 %19, 0
  br i1 %.not27, label %20, label %lean_dec.exit20

20:                                               ; preds = %17
  %21 = load i32, ptr %1, align 4, !tbaa !8
  %22 = icmp sgt i32 %21, 1
  br i1 %22, label %23, label %25, !prof !11

23:                                               ; preds = %20
  %24 = add nsw i32 %21, -1
  store i32 %24, ptr %1, align 4, !tbaa !8
  br label %lean_dec.exit20

25:                                               ; preds = %20
  %.not.i22 = icmp eq i32 %21, 0
  br i1 %.not.i22, label %lean_dec.exit20, label %26

26:                                               ; preds = %25
  tail call void @lean_dec_ref_cold(ptr noundef nonnull %1) #5
  br label %lean_dec.exit20

lean_dec.exit20:                                  ; preds = %26, %25, %23, %17
  tail call void @lean_inc_heartbeat() #5
  %27 = tail call noalias ptr @mi_malloc_small(i64 noundef 24) #5
  %28 = icmp eq ptr %27, null
  br i1 %28, label %29, label %lean_alloc_ctor.exit

29:                                               ; preds = %lean_dec.exit20
  tail call void @lean_internal_panic_out_of_memory() #6
  unreachable

lean_alloc_ctor.exit:                             ; preds = %lean_dec.exit20
  %30 = getelementptr inbounds nuw i8, ptr %27, i64 4
  store i32 1, ptr %27, align 4, !tbaa !8
  store i32 131096, ptr %30, align 4
  %31 = getelementptr inbounds nuw i8, ptr %27, i64 8
  store ptr inttoptr (i64 1 to ptr), ptr %31, align 8, !tbaa !4
  %32 = getelementptr inbounds nuw i8, ptr %27, i64 16
  store ptr %3, ptr %32, align 8, !tbaa !4
  br label %lean_dec.exit

33:                                               ; preds = %lean_dec.exit21
  %34 = tail call ptr @l_Lean_Syntax_getArg(ptr noundef %0, ptr noundef nonnull inttoptr (i64 7 to ptr)) #5
  %35 = load ptr, ptr @l_Lean_Linter_MissingDocs_checkClassAbbrev___closed__1, align 8, !tbaa !4
  %36 = tail call ptr @l_Lean_Linter_MissingDocs_lintNamed(ptr noundef %34, ptr noundef %35, ptr noundef %1, ptr noundef %2, ptr noundef %3)
  %37 = ptrtoint ptr %34 to i64
  %38 = and i64 %37, 1
  %.not26 = icmp eq i64 %38, 0
  br i1 %.not26, label %39, label %lean_dec.exit

39:                                               ; preds = %33
  %40 = load i32, ptr %34, align 4, !tbaa !8
  %41 = icmp sgt i32 %40, 1
  br i1 %41, label %42, label %44, !prof !11

42:                                               ; preds = %39
  %43 = add nsw i32 %40, -1
  store i32 %43, ptr %34, align 4, !tbaa !8
  br label %lean_dec.exit

44:                                               ; preds = %39
  %.not.i24 = icmp eq i32 %40, 0
  br i1 %.not.i24, label %lean_dec.exit, label %45

45:                                               ; preds = %44
  tail call void @lean_dec_ref_cold(ptr noundef nonnull %34) #5
  br label %lean_dec.exit

lean_dec.exit:                                    ; preds = %33, %42, %44, %45, %lean_alloc_ctor.exit
  %.0 = phi ptr [ %27, %lean_alloc_ctor.exit ], [ %36, %45 ], [ %36, %44 ], [ %36, %42 ], [ %36, %33 ]
  ret ptr %.0
}